; ModuleID = '39/1458.c'
source_filename = "39/1458.c"
target datalayout = "e-m:e-p270:32:32-p271:32:32-p272:64:64-i64:64-f80:128-n8:16:32:64-S128"
target triple = "x86_64-pc-linux-gnu"

@.str = private unnamed_addr constant [3 x i8] c"%d\00", align 1
@.str.1 = private unnamed_addr constant [18 x i8] c"%s %d %d %c %c %d\00", align 1
@.str.2 = private unnamed_addr constant [3 x i8] c"%c\00", align 1
@.str.3 = private unnamed_addr constant [7 x i8] c"\0A%d\0A%d\00", align 1

; Function Attrs: noinline nounwind uwtable
define dso_local void @main() #0 {
  %1 = alloca i32, align 4
  %2 = alloca i32, align 4
  %3 = alloca i32, align 4
  %4 = alloca i32, align 4
  %5 = alloca i32, align 4
  %6 = alloca i32, align 4
  %7 = alloca i32, align 4
  %8 = alloca i32, align 4
  %9 = alloca [200 x i32], align 16
  %10 = alloca [200 x [20 x i8]], align 16
  %11 = alloca i8, align 1
  %12 = alloca i8, align 1
  store i32 0, i32* %4, align 4
  %13 = call i32 (i8*, ...) @__isoc99_scanf(i8* getelementptr inbounds ([3 x i8], [3 x i8]* @.str, i64 0, i64 0), i32* %2)
  store i32 0, i32* %3, align 4
  br label %14

14:                                               ; preds = %101, %0
  %15 = load i32, i32* %3, align 4
  %16 = load i32, i32* %2, align 4
  %17 = icmp slt i32 %15, %16
  br i1 %17, label %18, label %104

18:                                               ; preds = %14
  %19 = load i32, i32* %3, align 4
  %20 = sext i32 %19 to i64
  %21 = getelementptr inbounds [200 x [20 x i8]], [200 x [20 x i8]]* %10, i64 0, i64 %20
  %22 = getelementptr inbounds [20 x i8], [20 x i8]* %21, i64 0, i64 0
  %23 = call i32 (i8*, ...) @__isoc99_scanf(i8* getelementptr inbounds ([18 x i8], [18 x i8]* @.str.1, i64 0, i64 0), i8* %22, i32* %6, i32* %7, i8* %11, i8* %12, i32* %8)
  %24 = load i32, i32* %3, align 4
  %25 = sext i32 %24 to i64
  %26 = getelementptr inbounds [200 x i32], [200 x i32]* %9, i64 0, i64 %25
  store i32 0, i32* %26, align 4
  %27 = load i32, i32* %6, align 4
  %28 = icmp sgt i32 %27, 80
  br i1 %28, label %29, label %41

29:                                               ; preds = %18
  %30 = load i32, i32* %8, align 4
  %31 = icmp sge i32 %30, 1
  br i1 %31, label %32, label %41

32:                                               ; preds = %29
  %33 = load i32, i32* %3, align 4
  %34 = sext i32 %33 to i64
  %35 = getelementptr inbounds [200 x i32], [200 x i32]* %9, i64 0, i64 %34
  %36 = load i32, i32* %35, align 4
  %37 = add nsw i32 %36, 8000
  %38 = load i32, i32* %3, align 4
  %39 = sext i32 %38 to i64
  %40 = getelementptr inbounds [200 x i32], [200 x i32]* %9, i64 0, i64 %39
  store i32 %37, i32* %40, align 4
  br label %41

41:                                               ; preds = %32, %29, %18
  %42 = load i32, i32* %7, align 4
  %43 = icmp sgt i32 %42, 80
  br i1 %43, label %44, label %56

44:                                               ; preds = %41
  %45 = load i32, i32* %6, align 4
  %46 = icmp sgt i32 %45, 85
  br i1 %46, label %47, label %56

47:                                               ; preds = %44
  %48 = load i32, i32* %3, align 4
  %49 = sext i32 %48 to i64
  %50 = getelementptr inbounds [200 x i32], [200 x i32]* %9, i64 0, i64 %49
  %51 = load i32, i32* %50, align 4
  %52 = add nsw i32 %51, 4000
  %53 = load i32, i32* %3, align 4
  %54 = sext i32 %53 to i64
  %55 = getelementptr inbounds [200 x i32], [200 x i32]* %9, i64 0, i64 %54
  store i32 %52, i32* %55, align 4
  br label %56

56:                                               ; preds = %47, %44, %41
  %57 = load i32, i32* %6, align 4
  %58 = icmp sgt i32 %57, 90
  br i1 %58, label %59, label %68

59:                                               ; preds = %56
  %60 = load i32, i32* %3, align 4
  %61 = sext i32 %60 to i64
  %62 = getelementptr inbounds [200 x i32], [200 x i32]* %9, i64 0, i64 %61
  %63 = load i32, i32* %62, align 4
  %64 = add nsw i32 %63, 2000
  %65 = load i32, i32* %3, align 4
  %66 = sext i32 %65 to i64
  %67 = getelementptr inbounds [200 x i32], [200 x i32]* %9, i64 0, i64 %66
  store i32 %64, i32* %67, align 4
  br label %68

68:                                               ; preds = %59, %56
  %69 = load i32, i32* %6, align 4
  %70 = icmp sgt i32 %69, 85
  br i1 %70, label %71, label %84

71:                                               ; preds = %68
  %72 = load i8, i8* %12, align 1
  %73 = sext i8 %72 to i32
  %74 = icmp eq i32 %73, 89
  br i1 %74, label %75, label %84

75:                                               ; preds = %71
  %76 = load i32, i32* %3, align 4
  %77 = sext i32 %76 to i64
  %78 = getelementptr inbounds [200 x i32], [200 x i32]* %9, i64 0, i64 %77
  %79 = load i32, i32* %78, align 4
  %80 = add nsw i32 %79, 1000
  %81 = load i32, i32* %3, align 4
  %82 = sext i32 %81 to i64
  %83 = getelementptr inbounds [200 x i32], [200 x i32]* %9, i64 0, i64 %82
  store i32 %80, i32* %83, align 4
  br label %84

84:                                               ; preds = %75, %71, %68
  %85 = load i32, i32* %7, align 4
  %86 = icmp sgt i32 %85, 80
  br i1 %86, label %87, label %100

87:                                               ; preds = %84
  %88 = load i8, i8* %11, align 1
  %89 = sext i8 %88 to i32
  %90 = icmp eq i32 %89, 89
  br i1 %90, label %91, label %100

91:                                               ; preds = %87
  %92 = load i32, i32* %3, align 4
  %93 = sext i32 %92 to i64
  %94 = getelementptr inbounds [200 x i32], [200 x i32]* %9, i64 0, i64 %93
  %95 = load i32, i32* %94, align 4
  %96 = add nsw i32 %95, 850
  %97 = load i32, i32* %3, align 4
  %98 = sext i32 %97 to i64
  %99 = getelementptr inbounds [200 x i32], [200 x i32]* %9, i64 0, i64 %98
  store i32 %96, i32* %99, align 4
  br label %100

100:                                              ; preds = %91, %87, %84
  br label %101

101:                                              ; preds = %100
  %102 = load i32, i32* %3, align 4
  %103 = add nsw i32 %102, 1
  store i32 %103, i32* %3, align 4
  br label %14

104:                                              ; preds = %14
  %105 = getelementptr inbounds [200 x i32], [200 x i32]* %9, i64 0, i64 0
  %106 = load i32, i32* %105, align 16
  store i32 %106, i32* %1, align 4
  %107 = getelementptr inbounds [200 x i32], [200 x i32]* %9, i64 0, i64 0
  %108 = load i32, i32* %107, align 16
  store i32 %108, i32* %5, align 4
  store i32 1, i32* %3, align 4
  br label %109

109:                                              ; preds = %133, %104
  %110 = load i32, i32* %3, align 4
  %111 = load i32, i32* %2, align 4
  %112 = icmp slt i32 %110, %111
  br i1 %112, label %113, label %136

113:                                              ; preds = %109
  %114 = load i32, i32* %3, align 4
  %115 = sext i32 %114 to i64
  %116 = getelementptr inbounds [200 x i32], [200 x i32]* %9, i64 0, i64 %115
  %117 = load i32, i32* %116, align 4
  %118 = load i32, i32* %1, align 4
  %119 = icmp sgt i32 %117, %118
  br i1 %119, label %120, label %126

120:                                              ; preds = %113
  %121 = load i32, i32* %3, align 4
  %122 = sext i32 %121 to i64
  %123 = getelementptr inbounds [200 x i32], [200 x i32]* %9, i64 0, i64 %122
  %124 = load i32, i32* %123, align 4
  store i32 %124, i32* %1, align 4
  %125 = load i32, i32* %3, align 4
  store i32 %125, i32* %4, align 4
  br label %126

126:                                              ; preds = %120, %113
  %127 = load i32, i32* %5, align 4
  %128 = load i32, i32* %3, align 4
  %129 = sext i32 %128 to i64
  %130 = getelementptr inbounds [200 x i32], [200 x i32]* %9, i64 0, i64 %129
  %131 = load i32, i32* %130, align 4
  %132 = add nsw i32 %127, %131
  store i32 %132, i32* %5, align 4
  br label %133

133:                                              ; preds = %126
  %134 = load i32, i32* %3, align 4
  %135 = add nsw i32 %134, 1
  store i32 %135, i32* %3, align 4
  br label %109

136:                                              ; preds = %109
  store i32 0, i32* %3, align 4
  br label %137

137:                                              ; preds = %156, %136
  %138 = load i32, i32* %3, align 4
  %139 = sext i32 %138 to i64
  %140 = load i32, i32* %4, align 4
  %141 = sext i32 %140 to i64
  %142 = getelementptr inbounds [200 x [20 x i8]], [200 x [20 x i8]]* %10, i64 0, i64 %141
  %143 = getelementptr inbounds [20 x i8], [20 x i8]* %142, i64 0, i64 0
  %144 = call i64 @strlen(i8* %143) #3
  %145 = icmp ult i64 %139, %144
  br i1 %145, label %146, label %159

146:                                              ; preds = %137
  %147 = load i32, i32* %4, align 4
  %148 = sext i32 %147 to i64
  %149 = getelementptr inbounds [200 x [20 x i8]], [200 x [20 x i8]]* %10, i64 0, i64 %148
  %150 = load i32, i32* %3, align 4
  %151 = sext i32 %150 to i64
  %152 = getelementptr inbounds [20 x i8], [20 x i8]* %149, i64 0, i64 %151
  %153 = load i8, i8* %152, align 1
  %154 = sext i8 %153 to i32
  %155 = call i32 (i8*, ...) @printf(i8* getelementptr inbounds ([3 x i8], [3 x i8]* @.str.2, i64 0, i64 0), i32 %154)
  br label %156

156:                                              ; preds = %146
  %157 = load i32, i32* %3, align 4
  %158 = add nsw i32 %157, 1
  store i32 %158, i32* %3, align 4
  br label %137

159:                                              ; preds = %137
  %160 = load i32, i32* %4, align 4
  %161 = sext i32 %160 to i64
  %162 = getelementptr inbounds [200 x i32], [200 x i32]* %9, i64 0, i64 %161
  %163 = load i32, i32* %162, align 4
  %164 = load i32, i32* %5, align 4
  %165 = call i32 (i8*, ...) @printf(i8* getelementptr inbounds ([7 x i8], [7 x i8]* @.str.3, i64 0, i64 0), i32 %163, i32 %164)
  ret void
}

declare dso_local i32 @__isoc99_scanf(i8*, ...) #1

; Function Attrs: nounwind readonly
declare dso_local i64 @strlen(i8*) #2

declare dso_local i32 @printf(i8*, ...) #1


!llvm.module.flags = !{!0}
!llvm.ident = !{!1}

!0 = !{i32 1, !"wchar_size", i32 4}
!1 = !{!"clang version 10.0.0-4ubuntu1 "}
